; Function Attrs: mustprogress uwtable
define i64 @_ZN9grpc_core19GrpcTimeoutMetadata12ParseMementoENS_5SliceEbN4absl12lts_2023080211FunctionRefIFvSt17basic_string_viewIcSt11char_traitsIcEERKS1_EEE(ptr noundef nonnull %value, i1 noundef zeroext %0, ptr %on_error.coerce0, ptr nocapture readonly %on_error.coerce1) local_unnamed_addr #3 align 2 personality ptr @__gxx_personality_v0 {
entry:
  %call = tail call { i64, i8 } @_ZN9grpc_core12ParseTimeoutERKNS_5SliceE(ptr noundef nonnull align 8 dereferenceable(32) %value)
  %1 = extractvalue { i64, i8 } %call, 0
  %2 = extractvalue { i64, i8 } %call, 1
  %3 = and i8 %2, 1
  %tobool.i.i.not = icmp eq i8 %3, 0
  br i1 %tobool.i.i.not, label %if.then, label %return

if.then:                                          ; preds = %entry
  tail call void %on_error.coerce1(ptr %on_error.coerce0, i64 13, ptr nonnull @.str.6, ptr noundef nonnull align 8 dereferenceable(32) %value)
  br label %return

return:                                           ; preds = %entry, %if.then
  %retval.sroa.0.0 = phi i64 [ 9223372036854775807, %if.then ], [ %1, %entry ]
  ret i64 %retval.sroa.0.0
}